; Function Attrs: mustprogress uwtable
define internal void @_ZNK8facebook5velox3row12_GLOBAL__N_118ArrayBatchIterator8toStringB5cxx11Em(ptr noalias sret(%"class.std::__cxx11::basic_string") align 8 %agg.result, ptr noundef nonnull align 8 dereferenceable(104) %this, i64 noundef %idx) unnamed_addr #1 align 2 personality ptr @__gxx_personality_v0 {
entry:
  %str = alloca %"class.std::__cxx11::basic_stringstream", align 8
  %ref.tmp = alloca %"class.std::__cxx11::basic_string", align 8
  call void @_ZNSt7__cxx1118basic_stringstreamIcSt11char_traitsIcESaIcEEC1Ev(ptr noundef nonnull align 8 dereferenceable(128) %str)
  %add.ptr = getelementptr inbounds i8, ptr %str, i64 16
  %call = invoke noundef nonnull align 8 dereferenceable(8) ptr @_ZStlsISt11char_traitsIcEERSt13basic_ostreamIcT_ES5_PKc(ptr noundef nonnull align 8 dereferenceable(8) %add.ptr, ptr noundef nonnull @.str.20)
          to label %invoke.cont unwind label %lpad

invoke.cont:                                      ; preds = %entry
  %type_.i = getelementptr inbounds i8, ptr %this, i64 24
  %0 = load ptr, ptr %type_.i, align 8
  %vtable = load ptr, ptr %0, align 8
  %vfn = getelementptr inbounds i8, ptr %vtable, i64 80
  %1 = load ptr, ptr %vfn, align 8
  invoke void %1(ptr nonnull sret(%"class.std::__cxx11::basic_string") align 8 %ref.tmp, ptr noundef nonnull align 8 dereferenceable(17) %0)
          to label %invoke.cont4 unwind label %lpad

invoke.cont4:                                     ; preds = %invoke.cont
  %call7 = invoke noundef nonnull align 8 dereferenceable(8) ptr @_ZStlsIcSt11char_traitsIcESaIcEERSt13basic_ostreamIT_T0_ES7_RKNSt7__cxx1112basic_stringIS4_S5_T1_EE(ptr noundef nonnull align 8 dereferenceable(8) %call, ptr noundef nonnull align 8 dereferenceable(32) %ref.tmp)
          to label %invoke.cont6 unwind label %lpad5

invoke.cont6:                                     ; preds = %invoke.cont4
  %call9 = invoke noundef nonnull align 8 dereferenceable(8) ptr @_ZStlsISt11char_traitsIcEERSt13basic_ostreamIcT_ES5_PKc(ptr noundef nonnull align 8 dereferenceable(8) %call7, ptr noundef nonnull @.str.21)
          to label %invoke.cont8 unwind label %lpad5

invoke.cont8:                                     ; preds = %invoke.cont6
  %vtable10 = load ptr, ptr %this, align 8
  %vfn11 = getelementptr inbounds i8, ptr %vtable10, i64 24
  %2 = load ptr, ptr %vfn11, align 8
  %call13 = invoke noundef i64 %2(ptr noundef nonnull align 8 dereferenceable(104) %this, i64 noundef %idx)
          to label %invoke.cont12 unwind label %lpad5

invoke.cont12:                                    ; preds = %invoke.cont8
  %call15 = invoke noundef nonnull align 8 dereferenceable(8) ptr @_ZNSolsEm(ptr noundef nonnull align 8 dereferenceable(8) %call9, i64 noundef %call13)
          to label %invoke.cont14 unwind label %lpad5

invoke.cont14:                                    ; preds = %invoke.cont12
  %call17 = invoke noundef nonnull align 8 dereferenceable(8) ptr @_ZStlsISt11char_traitsIcEERSt13basic_ostreamIcT_ES5_PKc(ptr noundef nonnull align 8 dereferenceable(8) %call15, ptr noundef nonnull @.str.26)
          to label %invoke.cont16 unwind label %lpad5

invoke.cont16:                                    ; preds = %invoke.cont14
  %isFixedLength_ = getelementptr inbounds i8, ptr %this, i64 56
  %3 = load i8, ptr %isFixedLength_, align 8
  %4 = and i8 %3, 1
  %tobool = icmp ne i8 %4, 0
  %call19 = invoke noundef nonnull align 8 dereferenceable(8) ptr @_ZNSolsEb(ptr noundef nonnull align 8 dereferenceable(8) %call17, i1 noundef zeroext %tobool)
          to label %invoke.cont18 unwind label %lpad5

invoke.cont18:                                    ; preds = %invoke.cont16
  call void @_ZNSt7__cxx1112basic_stringIcSt11char_traitsIcESaIcEED1Ev(ptr noundef nonnull align 8 dereferenceable(32) %ref.tmp) #34
  invoke void @_ZNKSt7__cxx1118basic_stringstreamIcSt11char_traitsIcESaIcEE3strEv(ptr sret(%"class.std::__cxx11::basic_string") align 8 %agg.result, ptr noundef nonnull align 8 dereferenceable(128) %str)
          to label %invoke.cont20 unwind label %lpad

invoke.cont20:                                    ; preds = %invoke.cont18
  call void @_ZNSt7__cxx1118basic_stringstreamIcSt11char_traitsIcESaIcEED1Ev(ptr noundef nonnull align 8 dereferenceable(128) %str) #34
  ret void

lpad:                                             ; preds = %invoke.cont18, %invoke.cont, %entry
  %5 = landingpad { ptr, i32 }
          cleanup
  br label %ehcleanup

lpad5:                                            ; preds = %invoke.cont16, %invoke.cont14, %invoke.cont12, %invoke.cont8, %invoke.cont6, %invoke.cont4
  %6 = landingpad { ptr, i32 }
          cleanup
  call void @_ZNSt7__cxx1112basic_stringIcSt11char_traitsIcESaIcEED1Ev(ptr noundef nonnull align 8 dereferenceable(32) %ref.tmp) #34
  br label %ehcleanup

ehcleanup:                                        ; preds = %lpad5, %lpad
  %.pn = phi { ptr, i32 } [ %5, %lpad ], [ %6, %lpad5 ]
  call void @_ZNSt7__cxx1118basic_stringstreamIcSt11char_traitsIcESaIcEED1Ev(ptr noundef nonnull align 8 dereferenceable(128) %str) #34
  resume { ptr, i32 } %.pn
}